target datalayout = "e-m:e-p270:32:32-p271:32:32-p272:64:64-i64:64-i128:128-f80:128-n8:16:32:64-S128"
target triple = "x86_64-pc-linux-gnu"

%struct.MOVAtom = type { i32, i64 }
%struct.MOVContext = type { ptr, ptr, i32, i64, i32, i32, i32, i32, i32, i32, ptr, i32, ptr, ptr, i32, %struct.MOVFragment, ptr, i32, i32, i32, ptr, i32, i32, i32, i32, i32, i32, i32, i64, i32, i32, ptr, i32, i32, i32, i32, i32, %struct.MOVFragmentIndex, i32, i32, [20 x i8], [20 x i8], ptr, i32, ptr, i32, ptr, i32, ptr, i32, ptr, ptr, i32, i32, [3 x [3 x i32]], i32, i32, i32, i32, i32, ptr, i32, ptr, i32, i32, i64, i32 }
%struct.MOVFragment = type { i32, i32, i64, i64, i64, i32, i32, i32, i32 }
%struct.MOVFragmentIndex = type { i32, i32, i32, i32, ptr }
%struct.AVFormatContext = type { ptr, ptr, ptr, ptr, ptr, i32, i32, ptr, i32, ptr, i32, ptr, ptr, i64, i64, i64, i32, i32, i32, i64, i64, ptr, i32, i32, ptr, i32, i32, i32, i32, ptr, i64, i32, i32, %struct.AVIOInterruptCB, i32, i32, i32, i32, i64, i32, i32, i32, i32, i32, i32, i32, i32, i32, i32, i32, i32, i64, i32, i32, i32, i32, i32, ptr, ptr, ptr, ptr, i32, ptr, ptr, ptr, ptr, i32, ptr, ptr, i64, ptr, ptr, ptr, i64 }
%struct.AVIOInterruptCB = type { ptr, ptr }
%struct.MOVFragmentIndexItem = type { i64, i32, i32, i32, ptr }

@.str.493 = private unnamed_addr constant [5 x i8] c"root\00", align 1
@.str.528 = private unnamed_addr constant [38 x i8] c"root atom offset 0x%lx: partial file\0A\00", align 1
@.str.529 = private unnamed_addr constant [30 x i8] c"read fragments, offset 0x%lx\0A\00", align 1

; Function Attrs: alwaysinline nounwind uwtable
define internal i64 @avio_tell(ptr noundef %0) #5 {
  %2 = alloca ptr, align 8
  store ptr %0, ptr %2, align 8, !tbaa !9
  %3 = load ptr, ptr %2, align 8, !tbaa !9
  %4 = call i64 @avio_seek(ptr noundef %3, i64 noundef 0, i32 noundef 1)
  ret i64 %4
}

; Function Attrs: nounwind uwtable
define internal i32 @search_frag_moof_offset(ptr noundef %0, i64 noundef %1) #0 {
  %3 = alloca i32, align 4
  %4 = alloca ptr, align 8
  %5 = alloca i64, align 8
  %6 = alloca i32, align 4
  %7 = alloca i32, align 4
  %8 = alloca i32, align 4
  %9 = alloca i64, align 8
  %10 = alloca i32, align 4
  store ptr %0, ptr %4, align 8, !tbaa !678
  store i64 %1, ptr %5, align 8, !tbaa !59
  call void @llvm.lifetime.start.p0(i64 4, ptr %6) #14
  call void @llvm.lifetime.start.p0(i64 4, ptr %7) #14
  call void @llvm.lifetime.start.p0(i64 4, ptr %8) #14
  call void @llvm.lifetime.start.p0(i64 8, ptr %9) #14
  %11 = load ptr, ptr %4, align 8, !tbaa !678
  %12 = getelementptr inbounds nuw %struct.MOVFragmentIndex, ptr %11, i32 0, i32 3
  %13 = load i32, ptr %12, align 4, !tbaa !680
  %14 = icmp ne i32 %13, 0
  br i1 %14, label %15, label %29

15:                                               ; preds = %2
  %16 = load ptr, ptr %4, align 8, !tbaa !678
  %17 = getelementptr inbounds nuw %struct.MOVFragmentIndex, ptr %16, i32 0, i32 4
  %18 = load ptr, ptr %17, align 8, !tbaa !681
  %19 = load ptr, ptr %4, align 8, !tbaa !678
  %20 = getelementptr inbounds nuw %struct.MOVFragmentIndex, ptr %19, i32 0, i32 3
  %21 = load i32, ptr %20, align 4, !tbaa !680
  %22 = sub nsw i32 %21, 1
  %23 = sext i32 %22 to i64
  %24 = getelementptr inbounds %struct.MOVFragmentIndexItem, ptr %18, i64 %23
  %25 = getelementptr inbounds nuw %struct.MOVFragmentIndexItem, ptr %24, i32 0, i32 0
  %26 = load i64, ptr %25, align 8, !tbaa !210
  %27 = load i64, ptr %5, align 8, !tbaa !59
  %28 = icmp slt i64 %26, %27
  br i1 %28, label %29, label %33

29:                                               ; preds = %15, %2
  %30 = load ptr, ptr %4, align 8, !tbaa !678
  %31 = getelementptr inbounds nuw %struct.MOVFragmentIndex, ptr %30, i32 0, i32 3
  %32 = load i32, ptr %31, align 4, !tbaa !680
  store i32 %32, ptr %3, align 4
  store i32 1, ptr %10, align 4
  br label %69

33:                                               ; preds = %15
  store i32 -1, ptr %6, align 4, !tbaa !11
  %34 = load ptr, ptr %4, align 8, !tbaa !678
  %35 = getelementptr inbounds nuw %struct.MOVFragmentIndex, ptr %34, i32 0, i32 3
  %36 = load i32, ptr %35, align 4, !tbaa !680
  store i32 %36, ptr %7, align 4, !tbaa !11
  br label %37

37:                                               ; preds = %66, %33
  %38 = load i32, ptr %7, align 4, !tbaa !11
  %39 = load i32, ptr %6, align 4, !tbaa !11
  %40 = sub nsw i32 %38, %39
  %41 = icmp sgt i32 %40, 1
  br i1 %41, label %42, label %67

42:                                               ; preds = %37
  %43 = load i32, ptr %6, align 4, !tbaa !11
  %44 = load i32, ptr %7, align 4, !tbaa !11
  %45 = add nsw i32 %43, %44
  %46 = ashr i32 %45, 1
  store i32 %46, ptr %8, align 4, !tbaa !11
  %47 = load ptr, ptr %4, align 8, !tbaa !678
  %48 = getelementptr inbounds nuw %struct.MOVFragmentIndex, ptr %47, i32 0, i32 4
  %49 = load ptr, ptr %48, align 8, !tbaa !681
  %50 = load i32, ptr %8, align 4, !tbaa !11
  %51 = sext i32 %50 to i64
  %52 = getelementptr inbounds %struct.MOVFragmentIndexItem, ptr %49, i64 %51
  %53 = getelementptr inbounds nuw %struct.MOVFragmentIndexItem, ptr %52, i32 0, i32 0
  %54 = load i64, ptr %53, align 8, !tbaa !210
  store i64 %54, ptr %9, align 8, !tbaa !59
  %55 = load i64, ptr %9, align 8, !tbaa !59
  %56 = load i64, ptr %5, align 8, !tbaa !59
  %57 = icmp sge i64 %55, %56
  br i1 %57, label %58, label %60

58:                                               ; preds = %42
  %59 = load i32, ptr %8, align 4, !tbaa !11
  store i32 %59, ptr %7, align 4, !tbaa !11
  br label %60

60:                                               ; preds = %58, %42
  %61 = load i64, ptr %9, align 8, !tbaa !59
  %62 = load i64, ptr %5, align 8, !tbaa !59
  %63 = icmp sle i64 %61, %62
  br i1 %63, label %64, label %66

64:                                               ; preds = %60
  %65 = load i32, ptr %8, align 4, !tbaa !11
  store i32 %65, ptr %6, align 4, !tbaa !11
  br label %66

66:                                               ; preds = %64, %60
  br label %37, !llvm.loop !683

67:                                               ; preds = %37
  %68 = load i32, ptr %7, align 4, !tbaa !11
  store i32 %68, ptr %3, align 4
  store i32 1, ptr %10, align 4
  br label %69

69:                                               ; preds = %67, %29
  call void @llvm.lifetime.end.p0(i64 8, ptr %9) #14
  call void @llvm.lifetime.end.p0(i64 4, ptr %8) #14
  call void @llvm.lifetime.end.p0(i64 4, ptr %7) #14
  call void @llvm.lifetime.end.p0(i64 4, ptr %6) #14
  %70 = load i32, ptr %3, align 4
  ret i32 %70
}

; Function Attrs: nounwind uwtable
define internal i32 @mov_switch_root(ptr noundef %0, i64 noundef %1, i32 noundef %2) #0 {
  %4 = alloca i32, align 4
  %5 = alloca ptr, align 8
  %6 = alloca i64, align 8
  %7 = alloca i32, align 4
  %8 = alloca i32, align 4
  %9 = alloca ptr, align 8
  %10 = alloca i32, align 4
  %11 = alloca %struct.MOVAtom, align 8
  store ptr %0, ptr %5, align 8, !tbaa !158
  store i64 %1, ptr %6, align 8, !tbaa !59
  store i32 %2, ptr %7, align 4, !tbaa !11
  call void @llvm.lifetime.start.p0(i64 4, ptr %8) #14
  call void @llvm.lifetime.start.p0(i64 8, ptr %9) #14
  %12 = load ptr, ptr %5, align 8, !tbaa !158
  %13 = getelementptr inbounds nuw %struct.AVFormatContext, ptr %12, i32 0, i32 3
  %14 = load ptr, ptr %13, align 8, !tbaa !159
  store ptr %14, ptr %9, align 8, !tbaa !4
  %15 = load i32, ptr %7, align 4, !tbaa !11
  %16 = icmp sge i32 %15, 0
  br i1 %16, label %17, label %34

17:                                               ; preds = %3
  %18 = load i32, ptr %7, align 4, !tbaa !11
  %19 = load ptr, ptr %9, align 8, !tbaa !4
  %20 = getelementptr inbounds nuw %struct.MOVContext, ptr %19, i32 0, i32 37
  %21 = getelementptr inbounds nuw %struct.MOVFragmentIndex, ptr %20, i32 0, i32 3
  %22 = load i32, ptr %21, align 4, !tbaa !208
  %23 = icmp slt i32 %18, %22
  br i1 %23, label %24, label %34

24:                                               ; preds = %17
  %25 = load ptr, ptr %9, align 8, !tbaa !4
  %26 = getelementptr inbounds nuw %struct.MOVContext, ptr %25, i32 0, i32 37
  %27 = getelementptr inbounds nuw %struct.MOVFragmentIndex, ptr %26, i32 0, i32 4
  %28 = load ptr, ptr %27, align 8, !tbaa !209
  %29 = load i32, ptr %7, align 4, !tbaa !11
  %30 = sext i32 %29 to i64
  %31 = getelementptr inbounds %struct.MOVFragmentIndexItem, ptr %28, i64 %30
  %32 = getelementptr inbounds nuw %struct.MOVFragmentIndexItem, ptr %31, i32 0, i32 0
  %33 = load i64, ptr %32, align 8, !tbaa !210
  store i64 %33, ptr %6, align 8, !tbaa !59
  br label %34

34:                                               ; preds = %24, %17, %3
  %35 = load i64, ptr %6, align 8, !tbaa !59
  %36 = icmp sge i64 %35, 0
  br i1 %36, label %37, label %50

37:                                               ; preds = %34
  %38 = load ptr, ptr %5, align 8, !tbaa !158
  %39 = getelementptr inbounds nuw %struct.AVFormatContext, ptr %38, i32 0, i32 4
  %40 = load ptr, ptr %39, align 8, !tbaa !160
  %41 = load i64, ptr %6, align 8, !tbaa !59
  %42 = call i64 @avio_seek(ptr noundef %40, i64 noundef %41, i32 noundef 0)
  %43 = load i64, ptr %6, align 8, !tbaa !59
  %44 = icmp ne i64 %42, %43
  br i1 %44, label %45, label %50

45:                                               ; preds = %37
  %46 = load ptr, ptr %9, align 8, !tbaa !4
  %47 = getelementptr inbounds nuw %struct.MOVContext, ptr %46, i32 0, i32 1
  %48 = load ptr, ptr %47, align 8, !tbaa !13
  %49 = load i64, ptr %6, align 8, !tbaa !59
  call void (ptr, i32, ptr, ...) @av_log(ptr noundef %48, i32 noundef 16, ptr noundef @.str.528, i64 noundef %49)
  store i32 -1094995529, ptr %4, align 4
  store i32 1, ptr %10, align 4
  br label %167

50:                                               ; preds = %37, %34
  %51 = load ptr, ptr %9, align 8, !tbaa !4
  %52 = getelementptr inbounds nuw %struct.MOVContext, ptr %51, i32 0, i32 28
  store i64 0, ptr %52, align 8, !tbaa !151
  %53 = load i32, ptr %7, align 4, !tbaa !11
  %54 = icmp slt i32 %53, 0
  br i1 %54, label %55, label %58

55:                                               ; preds = %50
  %56 = load i64, ptr %6, align 8, !tbaa !59
  %57 = icmp sge i64 %56, 0
  br i1 %57, label %65, label %58

58:                                               ; preds = %55, %50
  %59 = load i32, ptr %7, align 4, !tbaa !11
  %60 = load ptr, ptr %9, align 8, !tbaa !4
  %61 = getelementptr inbounds nuw %struct.MOVContext, ptr %60, i32 0, i32 37
  %62 = getelementptr inbounds nuw %struct.MOVFragmentIndex, ptr %61, i32 0, i32 3
  %63 = load i32, ptr %62, align 4, !tbaa !208
  %64 = icmp sge i32 %59, %63
  br i1 %64, label %65, label %70

65:                                               ; preds = %58, %55
  %66 = load ptr, ptr %9, align 8, !tbaa !4
  %67 = getelementptr inbounds nuw %struct.MOVContext, ptr %66, i32 0, i32 37
  %68 = load i64, ptr %6, align 8, !tbaa !59
  %69 = call i32 @search_frag_moof_offset(ptr noundef %67, i64 noundef %68)
  store i32 %69, ptr %7, align 4, !tbaa !11
  br label %70

70:                                               ; preds = %65, %58
  %71 = load i32, ptr %7, align 4, !tbaa !11
  %72 = icmp sge i32 %71, 0
  br i1 %72, label %73, label %134

73:                                               ; preds = %70
  %74 = load i32, ptr %7, align 4, !tbaa !11
  %75 = load ptr, ptr %9, align 8, !tbaa !4
  %76 = getelementptr inbounds nuw %struct.MOVContext, ptr %75, i32 0, i32 37
  %77 = getelementptr inbounds nuw %struct.MOVFragmentIndex, ptr %76, i32 0, i32 3
  %78 = load i32, ptr %77, align 4, !tbaa !208
  %79 = icmp slt i32 %74, %78
  br i1 %79, label %80, label %134

80:                                               ; preds = %73
  %81 = load ptr, ptr %9, align 8, !tbaa !4
  %82 = getelementptr inbounds nuw %struct.MOVContext, ptr %81, i32 0, i32 37
  %83 = getelementptr inbounds nuw %struct.MOVFragmentIndex, ptr %82, i32 0, i32 4
  %84 = load ptr, ptr %83, align 8, !tbaa !209
  %85 = load i32, ptr %7, align 4, !tbaa !11
  %86 = sext i32 %85 to i64
  %87 = getelementptr inbounds %struct.MOVFragmentIndexItem, ptr %84, i64 %86
  %88 = getelementptr inbounds nuw %struct.MOVFragmentIndexItem, ptr %87, i32 0, i32 0
  %89 = load i64, ptr %88, align 8, !tbaa !210
  %90 = load i64, ptr %6, align 8, !tbaa !59
  %91 = icmp eq i64 %89, %90
  br i1 %91, label %92, label %134

92:                                               ; preds = %80
  %93 = load i32, ptr %7, align 4, !tbaa !11
  %94 = add nsw i32 %93, 1
  %95 = load ptr, ptr %9, align 8, !tbaa !4
  %96 = getelementptr inbounds nuw %struct.MOVContext, ptr %95, i32 0, i32 37
  %97 = getelementptr inbounds nuw %struct.MOVFragmentIndex, ptr %96, i32 0, i32 3
  %98 = load i32, ptr %97, align 4, !tbaa !208
  %99 = icmp slt i32 %94, %98
  br i1 %99, label %100, label %113

100:                                              ; preds = %92
  %101 = load ptr, ptr %9, align 8, !tbaa !4
  %102 = getelementptr inbounds nuw %struct.MOVContext, ptr %101, i32 0, i32 37
  %103 = getelementptr inbounds nuw %struct.MOVFragmentIndex, ptr %102, i32 0, i32 4
  %104 = load ptr, ptr %103, align 8, !tbaa !209
  %105 = load i32, ptr %7, align 4, !tbaa !11
  %106 = add nsw i32 %105, 1
  %107 = sext i32 %106 to i64
  %108 = getelementptr inbounds %struct.MOVFragmentIndexItem, ptr %104, i64 %107
  %109 = getelementptr inbounds nuw %struct.MOVFragmentIndexItem, ptr %108, i32 0, i32 0
  %110 = load i64, ptr %109, align 8, !tbaa !210
  %111 = load ptr, ptr %9, align 8, !tbaa !4
  %112 = getelementptr inbounds nuw %struct.MOVContext, ptr %111, i32 0, i32 28
  store i64 %110, ptr %112, align 8, !tbaa !151
  br label %113

113:                                              ; preds = %100, %92
  %114 = load ptr, ptr %9, align 8, !tbaa !4
  %115 = getelementptr inbounds nuw %struct.MOVContext, ptr %114, i32 0, i32 37
  %116 = getelementptr inbounds nuw %struct.MOVFragmentIndex, ptr %115, i32 0, i32 4
  %117 = load ptr, ptr %116, align 8, !tbaa !209
  %118 = load i32, ptr %7, align 4, !tbaa !11
  %119 = sext i32 %118 to i64
  %120 = getelementptr inbounds %struct.MOVFragmentIndexItem, ptr %117, i64 %119
  %121 = getelementptr inbounds nuw %struct.MOVFragmentIndexItem, ptr %120, i32 0, i32 1
  %122 = load i32, ptr %121, align 8, !tbaa !214
  %123 = icmp ne i32 %122, 0
  br i1 %123, label %124, label %125

124:                                              ; preds = %113
  store i32 0, ptr %4, align 4
  store i32 1, ptr %10, align 4
  br label %167

125:                                              ; preds = %113
  %126 = load ptr, ptr %9, align 8, !tbaa !4
  %127 = getelementptr inbounds nuw %struct.MOVContext, ptr %126, i32 0, i32 37
  %128 = getelementptr inbounds nuw %struct.MOVFragmentIndex, ptr %127, i32 0, i32 4
  %129 = load ptr, ptr %128, align 8, !tbaa !209
  %130 = load i32, ptr %7, align 4, !tbaa !11
  %131 = sext i32 %130 to i64
  %132 = getelementptr inbounds %struct.MOVFragmentIndexItem, ptr %129, i64 %131
  %133 = getelementptr inbounds nuw %struct.MOVFragmentIndexItem, ptr %132, i32 0, i32 1
  store i32 1, ptr %133, align 8, !tbaa !214
  br label %134

134:                                              ; preds = %125, %80, %73, %70
  %135 = load ptr, ptr %9, align 8, !tbaa !4
  %136 = getelementptr inbounds nuw %struct.MOVContext, ptr %135, i32 0, i32 7
  store i32 0, ptr %136, align 4, !tbaa !147
  %137 = load ptr, ptr %9, align 8, !tbaa !4
  %138 = load ptr, ptr %5, align 8, !tbaa !158
  %139 = getelementptr inbounds nuw %struct.AVFormatContext, ptr %138, i32 0, i32 4
  %140 = load ptr, ptr %139, align 8, !tbaa !160
  %141 = getelementptr inbounds nuw %struct.MOVAtom, ptr %11, i32 0, i32 0
  %142 = load i32, ptr @.str.493, align 1, !tbaa !55
  store i32 %142, ptr %141, align 8, !tbaa !56
  %143 = getelementptr i8, ptr %11, i64 4
  call void @llvm.memset.p0.i64(ptr align 4 %143, i8 0, i64 4, i1 false)
  %144 = getelementptr inbounds nuw %struct.MOVAtom, ptr %11, i32 0, i32 1
  store i64 9223372036854775807, ptr %144, align 8, !tbaa !58
  %145 = getelementptr inbounds nuw { i32, i64 }, ptr %11, i32 0, i32 0
  %146 = load i32, ptr %145, align 8
  %147 = getelementptr inbounds nuw { i32, i64 }, ptr %11, i32 0, i32 1
  %148 = load i64, ptr %147, align 8
  %149 = call i32 @mov_read_default(ptr noundef %137, ptr noundef %140, i32 %146, i64 %148)
  store i32 %149, ptr %8, align 4, !tbaa !11
  %150 = load i32, ptr %8, align 4, !tbaa !11
  %151 = icmp slt i32 %150, 0
  br i1 %151, label %152, label %154

152:                                              ; preds = %134
  %153 = load i32, ptr %8, align 4, !tbaa !11
  store i32 %153, ptr %4, align 4
  store i32 1, ptr %10, align 4
  br label %167

154:                                              ; preds = %134
  %155 = load ptr, ptr %5, align 8, !tbaa !158
  %156 = getelementptr inbounds nuw %struct.AVFormatContext, ptr %155, i32 0, i32 4
  %157 = load ptr, ptr %156, align 8, !tbaa !160
  %158 = call i32 @avio_feof(ptr noundef %157)
  %159 = icmp ne i32 %158, 0
  br i1 %159, label %160, label %161

160:                                              ; preds = %154
  store i32 -541478725, ptr %4, align 4
  store i32 1, ptr %10, align 4
  br label %167

161:                                              ; preds = %154
  %162 = load ptr, ptr %5, align 8, !tbaa !158
  %163 = load ptr, ptr %5, align 8, !tbaa !158
  %164 = getelementptr inbounds nuw %struct.AVFormatContext, ptr %163, i32 0, i32 4
  %165 = load ptr, ptr %164, align 8, !tbaa !160
  %166 = call i64 @avio_tell(ptr noundef %165)
  call void (ptr, i32, ptr, ...) @av_log(ptr noundef %162, i32 noundef 56, ptr noundef @.str.529, i64 noundef %166)
  store i32 1, ptr %4, align 4
  store i32 1, ptr %10, align 4
  br label %167

167:                                              ; preds = %161, %160, %152, %124, %45
  call void @llvm.lifetime.end.p0(i64 8, ptr %9) #14
  call void @llvm.lifetime.end.p0(i64 4, ptr %8) #14
  %168 = load i32, ptr %4, align 4
  ret i32 %168
}