; Function Attrs: nounwind uwtable
define internal fastcc range(i32 -2147483648, 2) i32 @mov_switch_root(ptr noundef %0, i64 noundef range(i64 1, 0) %1, i32 noundef %2) unnamed_addr #0 {
  %4 = getelementptr inbounds nuw i8, ptr %0, i64 24
  %5 = load ptr, ptr %4, align 8, !tbaa !144
  %6 = icmp sgt i32 %2, -1
  br i1 %6, label %7, label %17

7:                                                ; preds = %3
  %8 = getelementptr inbounds nuw i8, ptr %5, i64 268
  %9 = load i32, ptr %8, align 4, !tbaa !298
  %10 = icmp slt i32 %2, %9
  br i1 %10, label %11, label %17

11:                                               ; preds = %7
  %12 = getelementptr inbounds nuw i8, ptr %5, i64 272
  %13 = load ptr, ptr %12, align 8, !tbaa !299
  %14 = zext nneg i32 %2 to i64
  %15 = getelementptr inbounds nuw %struct.MOVFragmentIndexItem, ptr %13, i64 %14
  %16 = load i64, ptr %15, align 8, !tbaa !301
  br label %17

17:                                               ; preds = %11, %7, %3
  %.043 = phi i64 [ %16, %11 ], [ %1, %7 ], [ %1, %3 ]
  %18 = icmp sgt i64 %.043, -1
  br i1 %18, label %20, label %.thread

.thread:                                          ; preds = %17
  %19 = getelementptr inbounds nuw i8, ptr %5, i64 208
  store i64 0, ptr %19, align 8, !tbaa !140
  br label %30

20:                                               ; preds = %17
  %21 = getelementptr inbounds nuw i8, ptr %0, i64 32
  %22 = load ptr, ptr %21, align 8, !tbaa !145
  %23 = tail call i64 @avio_seek(ptr noundef %22, i64 noundef %.043, i32 noundef 0) #16
  %.not = icmp eq i64 %23, %.043
  br i1 %.not, label %27, label %24

24:                                               ; preds = %20
  %25 = getelementptr inbounds nuw i8, ptr %5, i64 8
  %26 = load ptr, ptr %25, align 8, !tbaa !4
  tail call void (ptr, i32, ptr, ...) @av_log(ptr noundef %26, i32 noundef 16, ptr noundef nonnull @.str.528, i64 noundef %.043) #16
  br label %86

27:                                               ; preds = %20
  %28 = getelementptr inbounds nuw i8, ptr %5, i64 208
  store i64 0, ptr %28, align 8, !tbaa !140
  %29 = icmp slt i32 %2, 0
  br i1 %29, label %._crit_edge, label %30

._crit_edge:                                      ; preds = %27
  %.phi.trans.insert = getelementptr inbounds nuw i8, ptr %5, i64 268
  %.pre = load i32, ptr %.phi.trans.insert, align 4, !tbaa !336
  br label %34

30:                                               ; preds = %.thread, %27
  %31 = phi ptr [ %19, %.thread ], [ %28, %27 ]
  %32 = getelementptr inbounds nuw i8, ptr %5, i64 268
  %33 = load i32, ptr %32, align 4, !tbaa !298
  %.not49 = icmp slt i32 %2, %33
  br i1 %.not49, label %search_frag_moof_offset.exit, label %34

34:                                               ; preds = %._crit_edge, %30
  %35 = phi i32 [ %.pre, %._crit_edge ], [ %33, %30 ]
  %36 = phi ptr [ %28, %._crit_edge ], [ %31, %30 ]
  %.not.i = icmp eq i32 %35, 0
  br i1 %.not.i, label %search_frag_moof_offset.exit.thread.thread, label %37

37:                                               ; preds = %34
  %38 = getelementptr inbounds nuw i8, ptr %5, i64 272
  %39 = load ptr, ptr %38, align 8, !tbaa !337
  %40 = sext i32 %35 to i64
  %41 = getelementptr %struct.MOVFragmentIndexItem, ptr %39, i64 %40
  %42 = getelementptr i8, ptr %41, i64 -32
  %43 = load i64, ptr %42, align 8, !tbaa !301
  %44 = icmp sge i64 %43, %.043
  %45 = icmp sgt i32 %35, 0
  %or.cond.i = and i1 %45, %44
  br i1 %or.cond.i, label %.lr.ph.i, label %search_frag_moof_offset.exit

.lr.ph.i:                                         ; preds = %37, %.lr.ph.i
  %.01927.i = phi i32 [ %.1.i, %.lr.ph.i ], [ -1, %37 ]
  %.02026.i = phi i32 [ %spec.select.i, %.lr.ph.i ], [ %35, %37 ]
  %46 = add nsw i32 %.02026.i, %.01927.i
  %47 = ashr i32 %46, 1
  %48 = sext i32 %47 to i64
  %49 = getelementptr inbounds %struct.MOVFragmentIndexItem, ptr %39, i64 %48
  %50 = load i64, ptr %49, align 8, !tbaa !301
  %.not24.i = icmp slt i64 %50, %.043
  %spec.select.i = select i1 %.not24.i, i32 %.02026.i, i32 %47
  %.not25.i = icmp sgt i64 %50, %.043
  %.1.i = select i1 %.not25.i, i32 %.01927.i, i32 %47
  %51 = sub nsw i32 %spec.select.i, %.1.i
  %52 = icmp sgt i32 %51, 1
  br i1 %52, label %.lr.ph.i, label %search_frag_moof_offset.exit, !llvm.loop !705

search_frag_moof_offset.exit:                     ; preds = %.lr.ph.i, %37, %30
  %53 = phi i32 [ %33, %30 ], [ %35, %37 ], [ %35, %.lr.ph.i ]
  %54 = phi ptr [ %31, %30 ], [ %36, %37 ], [ %36, %.lr.ph.i ]
  %.044 = phi i32 [ %2, %30 ], [ %35, %37 ], [ %spec.select.i, %.lr.ph.i ]
  %55 = icmp sgt i32 %.044, -1
  %56 = icmp slt i32 %.044, %53
  %or.cond = and i1 %55, %56
  br i1 %or.cond, label %57, label %search_frag_moof_offset.exit.thread.thread

57:                                               ; preds = %search_frag_moof_offset.exit
  %58 = getelementptr inbounds nuw i8, ptr %5, i64 272
  %59 = load ptr, ptr %58, align 8, !tbaa !299
  %60 = zext nneg i32 %.044 to i64
  %61 = getelementptr inbounds nuw %struct.MOVFragmentIndexItem, ptr %59, i64 %60
  %62 = load i64, ptr %61, align 8, !tbaa !301
  %63 = icmp eq i64 %62, %.043
  br i1 %63, label %64, label %search_frag_moof_offset.exit.thread.thread

64:                                               ; preds = %57
  %65 = add nuw nsw i32 %.044, 1
  %66 = icmp samesign ult i32 %65, %53
  br i1 %66, label %67, label %71

67:                                               ; preds = %64
  %68 = zext nneg i32 %65 to i64
  %69 = getelementptr inbounds nuw %struct.MOVFragmentIndexItem, ptr %59, i64 %68
  %70 = load i64, ptr %69, align 8, !tbaa !301
  store i64 %70, ptr %54, align 8, !tbaa !140
  br label %71

71:                                               ; preds = %67, %64
  %72 = getelementptr inbounds nuw %struct.MOVFragmentIndexItem, ptr %59, i64 %60, i32 1
  %73 = load i32, ptr %72, align 8, !tbaa !304
  %.not50 = icmp eq i32 %73, 0
  br i1 %.not50, label %74, label %86

74:                                               ; preds = %71
  store i32 1, ptr %72, align 8, !tbaa !304
  br label %search_frag_moof_offset.exit.thread.thread

search_frag_moof_offset.exit.thread.thread:       ; preds = %34, %74, %57, %search_frag_moof_offset.exit
  %75 = getelementptr inbounds nuw i8, ptr %5, i64 44
  store i32 0, ptr %75, align 4, !tbaa !136
  %76 = getelementptr inbounds nuw i8, ptr %0, i64 32
  %77 = load ptr, ptr %76, align 8, !tbaa !145
  %78 = tail call i32 @mov_read_default(ptr noundef nonnull %5, ptr noundef %77, i32 1953460082, i64 9223372036854775807)
  %79 = icmp slt i32 %78, 0
  br i1 %79, label %86, label %80

80:                                               ; preds = %search_frag_moof_offset.exit.thread.thread
  %81 = load ptr, ptr %76, align 8, !tbaa !145
  %82 = tail call i32 @avio_feof(ptr noundef %81) #16
  %.not51 = icmp eq i32 %82, 0
  br i1 %.not51, label %83, label %86

83:                                               ; preds = %80
  %84 = load ptr, ptr %76, align 8, !tbaa !145
  %85 = tail call i64 @avio_seek(ptr noundef %84, i64 noundef 0, i32 noundef 1) #16
  tail call void (ptr, i32, ptr, ...) @av_log(ptr noundef nonnull %0, i32 noundef 56, ptr noundef nonnull @.str.529, i64 noundef %85) #16
  br label %86

86:                                               ; preds = %80, %search_frag_moof_offset.exit.thread.thread, %71, %83, %24
  %.0 = phi i32 [ -1094995529, %24 ], [ 1, %83 ], [ 0, %71 ], [ %78, %search_frag_moof_offset.exit.thread.thread ], [ -541478725, %80 ]
  ret i32 %.0
}